; Function Attrs: mustprogress uwtable
define dso_local void @_ZN17ContainerResource13writeAllRes16EP7SRBRoot(ptr noundef nonnull align 8 captures(none) dereferenceable(72) %0, ptr noundef %1) local_unnamed_addr #7 align 2 {
  %3 = alloca i16, align 2
  %4 = getelementptr inbounds nuw i8, ptr %0, i64 64
  %.05 = load ptr, ptr %4, align 8, !tbaa !74
  %.not6 = icmp eq ptr %.05, null
  br i1 %.not6, label %._crit_edge, label %.lr.ph

.lr.ph:                                           ; preds = %2
  %5 = getelementptr inbounds nuw i8, ptr %1, i64 72
  br label %7

._crit_edge:                                      ; preds = %7, %2
  %6 = getelementptr inbounds nuw i8, ptr %0, i64 9
  store i8 1, ptr %6, align 1, !tbaa !17
  ret void

7:                                                ; preds = %.lr.ph, %7
  %.07 = phi ptr [ %.05, %.lr.ph ], [ %.0, %7 ]
  %8 = getelementptr inbounds nuw i8, ptr %.07, i64 16
  %9 = load i32, ptr %8, align 8, !tbaa !21
  %10 = trunc i32 %9 to i16
  call void @llvm.lifetime.start.p0(i64 2, ptr nonnull %3)
  store i16 %10, ptr %3, align 2, !tbaa !70
  %11 = call noundef nonnull align 8 dereferenceable(64) ptr @_ZN6icu_7713UnicodeString8doAppendEPKDsii(ptr noundef nonnull align 8 dereferenceable(64) %5, ptr noundef nonnull %3, i32 noundef 0, i32 noundef 1)
  call void @llvm.lifetime.end.p0(i64 2, ptr nonnull %3)
  %12 = getelementptr inbounds nuw i8, ptr %.07, i64 32
  %.0 = load ptr, ptr %12, align 8, !tbaa !74
  %.not = icmp eq ptr %.0, null
  br i1 %.not, label %._crit_edge, label %7, !llvm.loop !86
}